target datalayout = "e-m:e-p270:32:32-p271:32:32-p272:64:64-i64:64-i128:128-f80:128-n8:16:32:64-S128"
target triple = "x86_64-pc-linux-gnu"

%struct.AVRational = type { i32, i32 }

@ff_h263_pixel_aspect = external constant [16 x %struct.AVRational], align 16

; Function Attrs: inlinehint nounwind uwtable
define internal i32 @av_cmp_q(i64 %0, i64 %1) #3 {
  %3 = alloca i32, align 4
  %4 = alloca %struct.AVRational, align 4
  %5 = alloca %struct.AVRational, align 4
  %6 = alloca i64, align 8
  %7 = alloca i32, align 4
  store i64 %0, ptr %4, align 4
  store i64 %1, ptr %5, align 4
  call void @llvm.lifetime.start.p0(i64 8, ptr %6) #11
  %8 = getelementptr inbounds nuw %struct.AVRational, ptr %4, i32 0, i32 0
  %9 = load i32, ptr %8, align 4, !tbaa !12
  %10 = sext i32 %9 to i64
  %11 = getelementptr inbounds nuw %struct.AVRational, ptr %5, i32 0, i32 1
  %12 = load i32, ptr %11, align 4, !tbaa !14
  %13 = sext i32 %12 to i64
  %14 = mul nsw i64 %10, %13
  %15 = getelementptr inbounds nuw %struct.AVRational, ptr %5, i32 0, i32 0
  %16 = load i32, ptr %15, align 4, !tbaa !12
  %17 = sext i32 %16 to i64
  %18 = getelementptr inbounds nuw %struct.AVRational, ptr %4, i32 0, i32 1
  %19 = load i32, ptr %18, align 4, !tbaa !14
  %20 = sext i32 %19 to i64
  %21 = mul nsw i64 %17, %20
  %22 = sub nsw i64 %14, %21
  store i64 %22, ptr %6, align 8, !tbaa !18
  %23 = load i64, ptr %6, align 8, !tbaa !18
  %24 = icmp ne i64 %23, 0
  br i1 %24, label %25, label %38

25:                                               ; preds = %2
  %26 = load i64, ptr %6, align 8, !tbaa !18
  %27 = getelementptr inbounds nuw %struct.AVRational, ptr %4, i32 0, i32 1
  %28 = load i32, ptr %27, align 4, !tbaa !14
  %29 = sext i32 %28 to i64
  %30 = xor i64 %26, %29
  %31 = getelementptr inbounds nuw %struct.AVRational, ptr %5, i32 0, i32 1
  %32 = load i32, ptr %31, align 4, !tbaa !14
  %33 = sext i32 %32 to i64
  %34 = xor i64 %30, %33
  %35 = ashr i64 %34, 63
  %36 = trunc i64 %35 to i32
  %37 = or i32 %36, 1
  store i32 %37, ptr %3, align 4
  store i32 1, ptr %7, align 4
  br label %64

38:                                               ; preds = %2
  %39 = getelementptr inbounds nuw %struct.AVRational, ptr %5, i32 0, i32 1
  %40 = load i32, ptr %39, align 4, !tbaa !14
  %41 = icmp ne i32 %40, 0
  br i1 %41, label %42, label %47

42:                                               ; preds = %38
  %43 = getelementptr inbounds nuw %struct.AVRational, ptr %4, i32 0, i32 1
  %44 = load i32, ptr %43, align 4, !tbaa !14
  %45 = icmp ne i32 %44, 0
  br i1 %45, label %46, label %47

46:                                               ; preds = %42
  store i32 0, ptr %3, align 4
  store i32 1, ptr %7, align 4
  br label %64

47:                                               ; preds = %42, %38
  %48 = getelementptr inbounds nuw %struct.AVRational, ptr %4, i32 0, i32 0
  %49 = load i32, ptr %48, align 4, !tbaa !12
  %50 = icmp ne i32 %49, 0
  br i1 %50, label %51, label %63

51:                                               ; preds = %47
  %52 = getelementptr inbounds nuw %struct.AVRational, ptr %5, i32 0, i32 0
  %53 = load i32, ptr %52, align 4, !tbaa !12
  %54 = icmp ne i32 %53, 0
  br i1 %54, label %55, label %63

55:                                               ; preds = %51
  %56 = getelementptr inbounds nuw %struct.AVRational, ptr %4, i32 0, i32 0
  %57 = load i32, ptr %56, align 4, !tbaa !12
  %58 = ashr i32 %57, 31
  %59 = getelementptr inbounds nuw %struct.AVRational, ptr %5, i32 0, i32 0
  %60 = load i32, ptr %59, align 4, !tbaa !12
  %61 = ashr i32 %60, 31
  %62 = sub nsw i32 %58, %61
  store i32 %62, ptr %3, align 4
  store i32 1, ptr %7, align 4
  br label %64

63:                                               ; preds = %51, %47
  store i32 -2147483648, ptr %3, align 4
  store i32 1, ptr %7, align 4
  br label %64

64:                                               ; preds = %63, %55, %46, %25
  call void @llvm.lifetime.end.p0(i64 8, ptr %6) #11
  %65 = load i32, ptr %3, align 4
  ret i32 %65
}

; Function Attrs: nounwind willreturn memory(none) uwtable
define i32 @ff_h263_aspect_to_info(i64 %0) #6 {
  %2 = alloca i32, align 4
  %3 = alloca %struct.AVRational, align 4
  %4 = alloca i32, align 4
  %5 = alloca %struct.AVRational, align 4
  %6 = alloca i32, align 4
  store i64 %0, ptr %3, align 4
  call void @llvm.lifetime.start.p0(i64 4, ptr %4) #11
  %7 = getelementptr inbounds nuw %struct.AVRational, ptr %3, i32 0, i32 0
  %8 = load i32, ptr %7, align 4, !tbaa !12
  %9 = icmp eq i32 %8, 0
  br i1 %9, label %14, label %10

10:                                               ; preds = %1
  %11 = getelementptr inbounds nuw %struct.AVRational, ptr %3, i32 0, i32 1
  %12 = load i32, ptr %11, align 4, !tbaa !14
  %13 = icmp eq i32 %12, 0
  br i1 %13, label %14, label %17

14:                                               ; preds = %10, %1
  %15 = getelementptr inbounds nuw %struct.AVRational, ptr %5, i32 0, i32 0
  store i32 1, ptr %15, align 4, !tbaa !12
  %16 = getelementptr inbounds nuw %struct.AVRational, ptr %5, i32 0, i32 1
  store i32 1, ptr %16, align 4, !tbaa !14
  call void @llvm.memcpy.p0.p0.i64(ptr align 4 %3, ptr align 4 %5, i64 8, i1 false), !tbaa.struct !15
  br label %17

17:                                               ; preds = %14, %10
  store i32 1, ptr %4, align 4, !tbaa !9
  br label %18

18:                                               ; preds = %32, %17
  %19 = load i32, ptr %4, align 4, !tbaa !9
  %20 = icmp slt i32 %19, 6
  br i1 %20, label %21, label %35

21:                                               ; preds = %18
  %22 = load i32, ptr %4, align 4, !tbaa !9
  %23 = sext i32 %22 to i64
  %24 = getelementptr inbounds [16 x %struct.AVRational], ptr @ff_h263_pixel_aspect, i64 0, i64 %23
  %25 = load i64, ptr %24, align 8
  %26 = load i64, ptr %3, align 4
  %27 = call i32 @av_cmp_q(i64 %25, i64 %26)
  %28 = icmp eq i32 %27, 0
  br i1 %28, label %29, label %31

29:                                               ; preds = %21
  %30 = load i32, ptr %4, align 4, !tbaa !9
  store i32 %30, ptr %2, align 4
  store i32 1, ptr %6, align 4
  br label %36

31:                                               ; preds = %21
  br label %32

32:                                               ; preds = %31
  %33 = load i32, ptr %4, align 4, !tbaa !9
  %34 = add nsw i32 %33, 1
  store i32 %34, ptr %4, align 4, !tbaa !9
  br label %18, !llvm.loop !16

35:                                               ; preds = %18
  store i32 15, ptr %2, align 4
  store i32 1, ptr %6, align 4
  br label %36

36:                                               ; preds = %35, %29
  call void @llvm.lifetime.end.p0(i64 4, ptr %4) #11
  %37 = load i32, ptr %2, align 4
  ret i32 %37
}