; Function Attrs: mustprogress nofree norecurse nosync nounwind willreturn memory(none) uwtable
define range(i32 0, 16) i32 @ff_h263_aspect_to_info(i64 %0) local_unnamed_addr #5 {
  %2 = and i64 %0, 4294967295
  %3 = icmp eq i64 %2, 0
  %4 = icmp ult i64 %0, 4294967296
  %or.cond = or i1 %4, %3
  %.sroa.06.0.insert.insert = select i1 %or.cond, i64 4294967297, i64 %0
  %.sroa.06.0.insert.insert.fr = freeze i64 %.sroa.06.0.insert.insert
  %.sroa.0.0.extract.trunc.i = trunc i64 %.sroa.06.0.insert.insert.fr to i32
  %5 = ashr i64 %.sroa.06.0.insert.insert.fr, 32
  %sext20.i = shl i64 %.sroa.06.0.insert.insert.fr, 32
  %6 = ashr exact i64 %sext20.i, 32
  %.not = icmp eq i32 %.sroa.0.0.extract.trunc.i, 0
  br i1 %.not, label %.split.us, label %.split

.split.us:                                        ; preds = %1, %av_cmp_q.exit.thread.us
  %indvars.iv20 = phi i64 [ %indvars.iv.next21, %av_cmp_q.exit.thread.us ], [ 1, %1 ]
  %7 = getelementptr inbounds nuw [16 x %struct.AVRational], ptr @ff_h263_pixel_aspect, i64 0, i64 %indvars.iv20
  %8 = load i64, ptr %7, align 8
  %sext.i.us = shl i64 %8, 32
  %9 = ashr exact i64 %sext.i.us, 32
  %10 = mul nsw i64 %9, %5
  %11 = ashr i64 %8, 32
  %12 = mul nuw nsw i64 %11, %6
  %.not.i.us = icmp eq i64 %10, %12
  %13 = icmp ugt i64 %8, 4294967295
  %or.cond16 = and i1 %.not.i.us, %13
  br i1 %or.cond16, label %av_cmp_q.exit.thread12.loopexit.split.loop.exit31, label %av_cmp_q.exit.thread.us

av_cmp_q.exit.thread.us:                          ; preds = %.split.us
  %indvars.iv.next21 = add nuw nsw i64 %indvars.iv20, 1
  %exitcond23.not = icmp eq i64 %indvars.iv.next21, 6
  br i1 %exitcond23.not, label %av_cmp_q.exit.thread12, label %.split.us, !llvm.loop !15

.split:                                           ; preds = %1, %av_cmp_q.exit.thread
  %indvars.iv = phi i64 [ %indvars.iv.next, %av_cmp_q.exit.thread ], [ 1, %1 ]
  %14 = getelementptr inbounds nuw [16 x %struct.AVRational], ptr @ff_h263_pixel_aspect, i64 0, i64 %indvars.iv
  %15 = load i64, ptr %14, align 8
  %.sroa.011.0.extract.trunc.i = trunc i64 %15 to i32
  %sext.i = shl i64 %15, 32
  %16 = ashr exact i64 %sext.i, 32
  %17 = mul nsw i64 %16, %5
  %18 = ashr i64 %15, 32
  %19 = mul nsw i64 %18, %6
  %.not.i = icmp eq i64 %17, %19
  br i1 %.not.i, label %20, label %av_cmp_q.exit.thread

20:                                               ; preds = %.split
  %21 = icmp ugt i64 %15, 4294967295
  br i1 %21, label %av_cmp_q.exit.thread12.loopexit24.split.loop.exit26, label %22

22:                                               ; preds = %20
  %23 = icmp ne i32 %.sroa.011.0.extract.trunc.i, 0
  %.unshifted = xor i32 %.sroa.011.0.extract.trunc.i, %.sroa.0.0.extract.trunc.i
  %24 = icmp sgt i32 %.unshifted, -1
  %or.cond14 = and i1 %23, %24
  br i1 %or.cond14, label %av_cmp_q.exit.thread12.loopexit24.split.loop.exit, label %av_cmp_q.exit.thread

av_cmp_q.exit.thread:                             ; preds = %.split, %22
  %indvars.iv.next = add nuw nsw i64 %indvars.iv, 1
  %exitcond.not = icmp eq i64 %indvars.iv.next, 6
  br i1 %exitcond.not, label %av_cmp_q.exit.thread12, label %.split, !llvm.loop !15

av_cmp_q.exit.thread12.loopexit.split.loop.exit31: ; preds = %.split.us
  %25 = trunc nuw nsw i64 %indvars.iv20 to i32
  br label %av_cmp_q.exit.thread12

av_cmp_q.exit.thread12.loopexit24.split.loop.exit: ; preds = %22
  %26 = trunc nuw nsw i64 %indvars.iv to i32
  br label %av_cmp_q.exit.thread12

av_cmp_q.exit.thread12.loopexit24.split.loop.exit26: ; preds = %20
  %27 = trunc nuw nsw i64 %indvars.iv to i32
  br label %av_cmp_q.exit.thread12

av_cmp_q.exit.thread12:                           ; preds = %av_cmp_q.exit.thread, %av_cmp_q.exit.thread.us, %av_cmp_q.exit.thread12.loopexit24.split.loop.exit, %av_cmp_q.exit.thread12.loopexit24.split.loop.exit26, %av_cmp_q.exit.thread12.loopexit.split.loop.exit31
  %.us-phi = phi i32 [ %25, %av_cmp_q.exit.thread12.loopexit.split.loop.exit31 ], [ %26, %av_cmp_q.exit.thread12.loopexit24.split.loop.exit ], [ %27, %av_cmp_q.exit.thread12.loopexit24.split.loop.exit26 ], [ 15, %av_cmp_q.exit.thread.us ], [ 15, %av_cmp_q.exit.thread ]
  ret i32 %.us-phi
}